target datalayout = "e-m:e-p270:32:32-p271:32:32-p272:64:64-i64:64-i128:128-f80:128-n8:16:32:64-S128"
target triple = "x86_64-pc-linux-gnu"

%struct.AttStatsSlot = type { i32, i32, i32, ptr, i32, ptr, i32, ptr, ptr }
%struct.FmgrInfo = type { ptr, i32, i16, i8, i8, i8, ptr, ptr, ptr }

; Function Attrs: inlinehint nounwind uwtable
define internal zeroext i1 @DatumGetBool(i64 noundef %0) #1 {
  %2 = alloca i64, align 8
  store i64 %0, ptr %2, align 8
  %3 = load i64, ptr %2, align 8
  %4 = icmp ne i64 %3, 0
  ret i1 %4
}

; Function Attrs: nounwind uwtable
define internal void @get_stats_slot_range(ptr noundef %0, i32 noundef %1, ptr noundef %2, i32 noundef %3, i16 noundef signext %4, i1 noundef zeroext %5, ptr noundef %6, ptr noundef %7, ptr noundef %8) #0 {
  %10 = alloca ptr, align 8
  %11 = alloca i32, align 4
  %12 = alloca ptr, align 8
  %13 = alloca i32, align 4
  %14 = alloca i16, align 2
  %15 = alloca i8, align 1
  %16 = alloca ptr, align 8
  %17 = alloca ptr, align 8
  %18 = alloca ptr, align 8
  %19 = alloca i64, align 8
  %20 = alloca i64, align 8
  %21 = alloca i8, align 1
  %22 = alloca i8, align 1
  %23 = alloca i8, align 1
  %24 = alloca i32, align 4
  store ptr %0, ptr %10, align 8
  store i32 %1, ptr %11, align 4
  store ptr %2, ptr %12, align 8
  store i32 %3, ptr %13, align 4
  store i16 %4, ptr %14, align 2
  %25 = zext i1 %5 to i8
  store i8 %25, ptr %15, align 1
  store ptr %6, ptr %16, align 8
  store ptr %7, ptr %17, align 8
  store ptr %8, ptr %18, align 8
  call void @llvm.lifetime.start.p0(i64 8, ptr %19) #10
  %26 = load ptr, ptr %16, align 8
  %27 = load i64, ptr %26, align 8
  store i64 %27, ptr %19, align 8
  call void @llvm.lifetime.start.p0(i64 8, ptr %20) #10
  %28 = load ptr, ptr %17, align 8
  %29 = load i64, ptr %28, align 8
  store i64 %29, ptr %20, align 8
  call void @llvm.lifetime.start.p0(i64 1, ptr %21) #10
  %30 = load ptr, ptr %18, align 8
  %31 = load i8, ptr %30, align 1, !range !4, !noundef !5
  %32 = trunc i8 %31 to i1
  %33 = zext i1 %32 to i8
  store i8 %33, ptr %21, align 1
  call void @llvm.lifetime.start.p0(i64 1, ptr %22) #10
  store i8 0, ptr %22, align 1
  call void @llvm.lifetime.start.p0(i64 1, ptr %23) #10
  store i8 0, ptr %23, align 1
  %34 = load ptr, ptr %12, align 8
  %35 = getelementptr inbounds nuw %struct.FmgrInfo, ptr %34, i32 0, i32 1
  %36 = load i32, ptr %35, align 8
  %37 = load i32, ptr %11, align 4
  %38 = icmp ne i32 %36, %37
  br i1 %38, label %39, label %42

39:                                               ; preds = %9
  %40 = load i32, ptr %11, align 4
  %41 = load ptr, ptr %12, align 8
  call void @fmgr_info(i32 noundef %40, ptr noundef %41)
  br label %42

42:                                               ; preds = %39, %9
  call void @llvm.lifetime.start.p0(i64 4, ptr %24) #10
  store i32 0, ptr %24, align 4
  br label %43

43:                                               ; preds = %105, %42
  %44 = load i32, ptr %24, align 4
  %45 = load ptr, ptr %10, align 8
  %46 = getelementptr inbounds nuw %struct.AttStatsSlot, ptr %45, i32 0, i32 4
  %47 = load i32, ptr %46, align 8
  %48 = icmp slt i32 %44, %47
  br i1 %48, label %50, label %49

49:                                               ; preds = %43
  call void @llvm.lifetime.end.p0(i64 4, ptr %24) #10
  br label %108

50:                                               ; preds = %43
  %51 = load i8, ptr %21, align 1, !range !4, !noundef !5
  %52 = trunc i8 %51 to i1
  br i1 %52, label %62, label %53

53:                                               ; preds = %50
  %54 = load ptr, ptr %10, align 8
  %55 = getelementptr inbounds nuw %struct.AttStatsSlot, ptr %54, i32 0, i32 3
  %56 = load ptr, ptr %55, align 8
  %57 = load i32, ptr %24, align 4
  %58 = sext i32 %57 to i64
  %59 = getelementptr inbounds i64, ptr %56, i64 %58
  %60 = load i64, ptr %59, align 8
  store i64 %60, ptr %20, align 8
  store i64 %60, ptr %19, align 8
  store i8 1, ptr %23, align 1
  store i8 1, ptr %22, align 1
  store i8 1, ptr %21, align 1
  %61 = load ptr, ptr %18, align 8
  store i8 1, ptr %61, align 1
  br label %105

62:                                               ; preds = %50
  %63 = load ptr, ptr %12, align 8
  %64 = load i32, ptr %13, align 4
  %65 = load ptr, ptr %10, align 8
  %66 = getelementptr inbounds nuw %struct.AttStatsSlot, ptr %65, i32 0, i32 3
  %67 = load ptr, ptr %66, align 8
  %68 = load i32, ptr %24, align 4
  %69 = sext i32 %68 to i64
  %70 = getelementptr inbounds i64, ptr %67, i64 %69
  %71 = load i64, ptr %70, align 8
  %72 = load i64, ptr %19, align 8
  %73 = call i64 @FunctionCall2Coll(ptr noundef %63, i32 noundef %64, i64 noundef %71, i64 noundef %72)
  %74 = call zeroext i1 @DatumGetBool(i64 noundef %73)
  br i1 %74, label %75, label %83

75:                                               ; preds = %62
  %76 = load ptr, ptr %10, align 8
  %77 = getelementptr inbounds nuw %struct.AttStatsSlot, ptr %76, i32 0, i32 3
  %78 = load ptr, ptr %77, align 8
  %79 = load i32, ptr %24, align 4
  %80 = sext i32 %79 to i64
  %81 = getelementptr inbounds i64, ptr %78, i64 %80
  %82 = load i64, ptr %81, align 8
  store i64 %82, ptr %19, align 8
  store i8 1, ptr %22, align 1
  br label %83

83:                                               ; preds = %75, %62
  %84 = load ptr, ptr %12, align 8
  %85 = load i32, ptr %13, align 4
  %86 = load i64, ptr %20, align 8
  %87 = load ptr, ptr %10, align 8
  %88 = getelementptr inbounds nuw %struct.AttStatsSlot, ptr %87, i32 0, i32 3
  %89 = load ptr, ptr %88, align 8
  %90 = load i32, ptr %24, align 4
  %91 = sext i32 %90 to i64
  %92 = getelementptr inbounds i64, ptr %89, i64 %91
  %93 = load i64, ptr %92, align 8
  %94 = call i64 @FunctionCall2Coll(ptr noundef %84, i32 noundef %85, i64 noundef %86, i64 noundef %93)
  %95 = call zeroext i1 @DatumGetBool(i64 noundef %94)
  br i1 %95, label %96, label %104

96:                                               ; preds = %83
  %97 = load ptr, ptr %10, align 8
  %98 = getelementptr inbounds nuw %struct.AttStatsSlot, ptr %97, i32 0, i32 3
  %99 = load ptr, ptr %98, align 8
  %100 = load i32, ptr %24, align 4
  %101 = sext i32 %100 to i64
  %102 = getelementptr inbounds i64, ptr %99, i64 %101
  %103 = load i64, ptr %102, align 8
  store i64 %103, ptr %20, align 8
  store i8 1, ptr %23, align 1
  br label %104

104:                                              ; preds = %96, %83
  br label %105

105:                                              ; preds = %104, %53
  %106 = load i32, ptr %24, align 4
  %107 = add i32 %106, 1
  store i32 %107, ptr %24, align 4
  br label %43, !llvm.loop !69

108:                                              ; preds = %49
  %109 = load i8, ptr %22, align 1, !range !4, !noundef !5
  %110 = trunc i8 %109 to i1
  br i1 %110, label %111, label %119

111:                                              ; preds = %108
  %112 = load i64, ptr %19, align 8
  %113 = load i8, ptr %15, align 1, !range !4, !noundef !5
  %114 = trunc i8 %113 to i1
  %115 = load i16, ptr %14, align 2
  %116 = sext i16 %115 to i32
  %117 = call i64 @datumCopy(i64 noundef %112, i1 noundef zeroext %114, i32 noundef %116)
  %118 = load ptr, ptr %16, align 8
  store i64 %117, ptr %118, align 8
  br label %119

119:                                              ; preds = %111, %108
  %120 = load i8, ptr %23, align 1, !range !4, !noundef !5
  %121 = trunc i8 %120 to i1
  br i1 %121, label %122, label %130

122:                                              ; preds = %119
  %123 = load i64, ptr %20, align 8
  %124 = load i8, ptr %15, align 1, !range !4, !noundef !5
  %125 = trunc i8 %124 to i1
  %126 = load i16, ptr %14, align 2
  %127 = sext i16 %126 to i32
  %128 = call i64 @datumCopy(i64 noundef %123, i1 noundef zeroext %125, i32 noundef %127)
  %129 = load ptr, ptr %17, align 8
  store i64 %128, ptr %129, align 8
  br label %130

130:                                              ; preds = %122, %119
  call void @llvm.lifetime.end.p0(i64 1, ptr %23) #10
  call void @llvm.lifetime.end.p0(i64 1, ptr %22) #10
  call void @llvm.lifetime.end.p0(i64 1, ptr %21) #10
  call void @llvm.lifetime.end.p0(i64 8, ptr %20) #10
  call void @llvm.lifetime.end.p0(i64 8, ptr %19) #10
  ret void
}