; Function Attrs: nounwind uwtable
define internal fastcc void @get_stats_slot_range(ptr noundef nonnull readonly captures(none) %0, i32 noundef %1, ptr noundef nonnull %2, i32 noundef %3, i16 noundef signext %4, i1 noundef zeroext %5, ptr noundef nonnull captures(none) %6, ptr noundef nonnull captures(none) %7, ptr noundef nonnull captures(none) %8) unnamed_addr #0 {
  %10 = load i64, ptr %6, align 8
  %11 = load i64, ptr %7, align 8
  %12 = load i8, ptr %8, align 1, !range !4, !noundef !5
  %13 = getelementptr inbounds nuw i8, ptr %2, i64 8
  %14 = load i32, ptr %13, align 8
  %.not = icmp eq i32 %14, %1
  br i1 %.not, label %16, label %15

15:                                               ; preds = %9
  tail call void @fmgr_info(i32 noundef %1, ptr noundef nonnull %2) #12
  br label %16

16:                                               ; preds = %15, %9
  %17 = getelementptr inbounds nuw i8, ptr %0, i64 24
  %18 = load i32, ptr %17, align 8
  %19 = icmp sgt i32 %18, 0
  br i1 %19, label %.lr.ph, label %.thread

.lr.ph:                                           ; preds = %16
  %20 = trunc nuw i8 %12 to i1
  %21 = getelementptr inbounds nuw i8, ptr %0, i64 16
  br label %22

._crit_edge:                                      ; preds = %34
  br i1 %.139, label %38, label %41

22:                                               ; preds = %.lr.ph, %34
  %indvars.iv = phi i64 [ 0, %.lr.ph ], [ %indvars.iv.next, %34 ]
  %.03754 = phi i1 [ false, %.lr.ph ], [ %.1, %34 ]
  %.03853 = phi i1 [ false, %.lr.ph ], [ %.139, %34 ]
  %.04052 = phi i1 [ %20, %.lr.ph ], [ true, %34 ]
  %.04251 = phi i64 [ %11, %.lr.ph ], [ %.143, %34 ]
  %.04450 = phi i64 [ %10, %.lr.ph ], [ %.145, %34 ]
  %23 = load ptr, ptr %21, align 8
  %24 = getelementptr inbounds nuw i64, ptr %23, i64 %indvars.iv
  %25 = load i64, ptr %24, align 8
  br i1 %.04052, label %27, label %26

26:                                               ; preds = %22
  store i8 1, ptr %8, align 1
  br label %34

27:                                               ; preds = %22
  %28 = tail call i64 @FunctionCall2Coll(ptr noundef nonnull %2, i32 noundef %3, i64 noundef %25, i64 noundef %.04450) #12
  %.not48 = icmp ne i64 %28, 0
  %.pre = load ptr, ptr %21, align 8
  %.phi.trans.insert = getelementptr inbounds nuw i64, ptr %.pre, i64 %indvars.iv
  %.pre60 = load i64, ptr %.phi.trans.insert, align 8
  %.04450..pre60 = select i1 %.not48, i64 %.pre60, i64 %.04450
  %.03853. = select i1 %.not48, i1 true, i1 %.03853
  %29 = tail call i64 @FunctionCall2Coll(ptr noundef nonnull %2, i32 noundef %3, i64 noundef %.04251, i64 noundef %.pre60) #12
  %.not49 = icmp eq i64 %29, 0
  br i1 %.not49, label %34, label %30

30:                                               ; preds = %27
  %31 = load ptr, ptr %21, align 8
  %32 = getelementptr inbounds nuw i64, ptr %31, i64 %indvars.iv
  %33 = load i64, ptr %32, align 8
  br label %34

34:                                               ; preds = %27, %30, %26
  %.145 = phi i64 [ %.04450..pre60, %30 ], [ %.04450..pre60, %27 ], [ %25, %26 ]
  %.143 = phi i64 [ %33, %30 ], [ %.04251, %27 ], [ %25, %26 ]
  %.139 = phi i1 [ %.03853., %30 ], [ %.03853., %27 ], [ true, %26 ]
  %.1 = phi i1 [ true, %30 ], [ %.03754, %27 ], [ true, %26 ]
  %indvars.iv.next = add nuw nsw i64 %indvars.iv, 1
  %35 = load i32, ptr %17, align 8
  %36 = sext i32 %35 to i64
  %37 = icmp slt i64 %indvars.iv.next, %36
  br i1 %37, label %22, label %._crit_edge, !llvm.loop !49

38:                                               ; preds = %._crit_edge
  %39 = sext i16 %4 to i32
  %40 = tail call i64 @datumCopy(i64 noundef %.145, i1 noundef zeroext %5, i32 noundef %39) #12
  store i64 %40, ptr %6, align 8
  br i1 %.1, label %42, label %.thread

41:                                               ; preds = %._crit_edge
  br i1 %.1, label %42, label %.thread

42:                                               ; preds = %38, %41
  %43 = sext i16 %4 to i32
  %44 = tail call i64 @datumCopy(i64 noundef %.143, i1 noundef zeroext %5, i32 noundef %43) #12
  store i64 %44, ptr %7, align 8
  br label %.thread

.thread:                                          ; preds = %16, %38, %42, %41
  ret void
}